Vinput::-webkit-outer-spin-button,input::-webkit-inner-spin-button{-webkit-appearance:none;margin:0}.fileUpload{position:relative;overflow:hidden}.fileUpload input[type=file]{position:absolute;top:0;left:0;margin:0;padding:0;font-size:18px;cursor:pointer;opacity:0;filter:alpha(opacity=0)}\u000a
p1
.